ccopy_reg
_reconstructor
p0
(cMailUser.mailUser
MailUser
p1
c__builtin__
object
p2
Ntp3
Rp4
(dp5
S'username'
p6
S'bGl1eGlhb3dlaUBjbm5pYy5jbg=='
p7
sS'password'
p8
S'Q25uaWM2NjY='
p9
sS'mailServer'
p10
S'c210cC5jbm5pYy5jbg=='
p11
sb.